target datalayout = "e-m:e-p270:32:32-p271:32:32-p272:64:64-i64:64-i128:128-f80:128-n8:16:32:64-S128"
target triple = "x86_64-pc-linux-gnu"

%struct.ResourceOwnerData = type { ptr, ptr, ptr, ptr, i8, i8, i8, i8, i32, [32 x %struct.ResourceElem], ptr, i32, i32, [15 x ptr] }
%struct.ResourceElem = type { i64, ptr }
%struct.ResourceOwnerDesc = type { ptr, i32, i32, ptr, ptr }

@.str.1 = private unnamed_addr constant [11 x i8] c"resowner.c\00", align 1
@.str.3 = private unnamed_addr constant [56 x i8] c"ResourceOwnerForget called for %s after release started\00", align 1
@__func__.ResourceOwnerForget = private unnamed_addr constant [20 x i8] c"ResourceOwnerForget\00", align 1
@.str.4 = private unnamed_addr constant [40 x i8] c"%s %p is not owned by resource owner %s\00", align 1

; Function Attrs: inlinehint nounwind uwtable
define internal i64 @hash_combine64(i64 noundef %0, i64 noundef %1) #5 {
  %3 = alloca i64, align 8
  %4 = alloca i64, align 8
  store i64 %0, ptr %3, align 8
  store i64 %1, ptr %4, align 8
  %5 = load i64, ptr %4, align 8
  %6 = add i64 %5, 5305509591434766563
  %7 = load i64, ptr %3, align 8
  %8 = shl i64 %7, 54
  %9 = add i64 %6, %8
  %10 = load i64, ptr %3, align 8
  %11 = lshr i64 %10, 7
  %12 = add i64 %9, %11
  %13 = load i64, ptr %3, align 8
  %14 = xor i64 %13, %12
  store i64 %14, ptr %3, align 8
  %15 = load i64, ptr %3, align 8
  ret i64 %15
}

; Function Attrs: inlinehint nounwind uwtable
define internal i64 @murmurhash64(i64 noundef %0) #5 {
  %2 = alloca i64, align 8
  %3 = alloca i64, align 8
  store i64 %0, ptr %2, align 8
  call void @llvm.lifetime.start.p0(i64 8, ptr %3) #6
  %4 = load i64, ptr %2, align 8
  store i64 %4, ptr %3, align 8
  %5 = load i64, ptr %3, align 8
  %6 = lshr i64 %5, 33
  %7 = load i64, ptr %3, align 8
  %8 = xor i64 %7, %6
  store i64 %8, ptr %3, align 8
  %9 = load i64, ptr %3, align 8
  %10 = mul i64 %9, -49064778989728563
  store i64 %10, ptr %3, align 8
  %11 = load i64, ptr %3, align 8
  %12 = lshr i64 %11, 33
  %13 = load i64, ptr %3, align 8
  %14 = xor i64 %13, %12
  store i64 %14, ptr %3, align 8
  %15 = load i64, ptr %3, align 8
  %16 = mul i64 %15, -4265267296055464877
  store i64 %16, ptr %3, align 8
  %17 = load i64, ptr %3, align 8
  %18 = lshr i64 %17, 33
  %19 = load i64, ptr %3, align 8
  %20 = xor i64 %19, %18
  store i64 %20, ptr %3, align 8
  %21 = load i64, ptr %3, align 8
  call void @llvm.lifetime.end.p0(i64 8, ptr %3) #6
  ret i64 %21
}

; Function Attrs: inlinehint nounwind uwtable
define internal ptr @DatumGetPointer(i64 noundef %0) #5 {
  %2 = alloca i64, align 8
  store i64 %0, ptr %2, align 8
  %3 = load i64, ptr %2, align 8
  %4 = inttoptr i64 %3 to ptr
  ret ptr %4
}

; Function Attrs: inlinehint nounwind uwtable
define internal i32 @hash_resource_elem(i64 noundef %0, ptr noundef %1) #5 {
  %3 = alloca i64, align 8
  %4 = alloca ptr, align 8
  store i64 %0, ptr %3, align 8
  store ptr %1, ptr %4, align 8
  %5 = load i64, ptr %3, align 8
  %6 = call i64 @murmurhash64(i64 noundef %5)
  %7 = load ptr, ptr %4, align 8
  %8 = ptrtoint ptr %7 to i64
  %9 = call i64 @hash_combine64(i64 noundef %6, i64 noundef %8)
  %10 = trunc i64 %9 to i32
  ret i32 %10
}

; Function Attrs: nounwind uwtable
define dso_local void @ResourceOwnerForget(ptr noundef %0, i64 noundef %1, ptr noundef %2) #0 {
  %4 = alloca ptr, align 8
  %5 = alloca i64, align 8
  %6 = alloca ptr, align 8
  %7 = alloca i32, align 4
  %8 = alloca i32, align 4
  %9 = alloca i32, align 4
  %10 = alloca i32, align 4
  %11 = alloca i32, align 4
  store ptr %0, ptr %4, align 8
  store i64 %1, ptr %5, align 8
  store ptr %2, ptr %6, align 8
  %12 = load ptr, ptr %4, align 8
  %13 = getelementptr inbounds nuw %struct.ResourceOwnerData, ptr %12, i32 0, i32 4
  %14 = load i8, ptr %13, align 8, !range !4, !noundef !5
  %15 = trunc i8 %14 to i1
  br i1 %15, label %16, label %29

16:                                               ; preds = %3
  br label %17

17:                                               ; preds = %16
  br i1 true, label %18, label %20

18:                                               ; preds = %17
  %19 = call zeroext i1 @errstart_cold(i32 noundef 21, ptr noundef null) #7
  br i1 %19, label %22, label %27

20:                                               ; preds = %17
  %21 = call zeroext i1 @errstart(i32 noundef 21, ptr noundef null)
  br i1 %21, label %22, label %27

22:                                               ; preds = %20, %18
  %23 = load ptr, ptr %6, align 8
  %24 = getelementptr inbounds nuw %struct.ResourceOwnerDesc, ptr %23, i32 0, i32 0
  %25 = load ptr, ptr %24, align 8
  %26 = call i32 (ptr, ...) @errmsg_internal(ptr noundef @.str.3, ptr noundef %25)
  call void @errfinish(ptr noundef @.str.1, i32 noundef 562, ptr noundef @__func__.ResourceOwnerForget)
  br label %27

27:                                               ; preds = %22, %20, %18
  unreachable

28:                                               ; No predecessors!
  br label %29

29:                                               ; preds = %28, %3
  call void @llvm.lifetime.start.p0(i64 4, ptr %7) #6
  %30 = load ptr, ptr %4, align 8
  %31 = getelementptr inbounds nuw %struct.ResourceOwnerData, ptr %30, i32 0, i32 7
  %32 = load i8, ptr %31, align 1
  %33 = zext i8 %32 to i32
  %34 = sub i32 %33, 1
  store i32 %34, ptr %7, align 4
  br label %35

35:                                               ; preds = %79, %29
  %36 = load i32, ptr %7, align 4
  %37 = icmp sge i32 %36, 0
  br i1 %37, label %39, label %38

38:                                               ; preds = %35
  store i32 4, ptr %8, align 4
  br label %82

39:                                               ; preds = %35
  %40 = load ptr, ptr %4, align 8
  %41 = getelementptr inbounds nuw %struct.ResourceOwnerData, ptr %40, i32 0, i32 9
  %42 = load i32, ptr %7, align 4
  %43 = sext i32 %42 to i64
  %44 = getelementptr inbounds [32 x %struct.ResourceElem], ptr %41, i64 0, i64 %43
  %45 = getelementptr inbounds nuw %struct.ResourceElem, ptr %44, i32 0, i32 0
  %46 = load i64, ptr %45, align 8
  %47 = load i64, ptr %5, align 8
  %48 = icmp eq i64 %46, %47
  br i1 %48, label %49, label %78

49:                                               ; preds = %39
  %50 = load ptr, ptr %4, align 8
  %51 = getelementptr inbounds nuw %struct.ResourceOwnerData, ptr %50, i32 0, i32 9
  %52 = load i32, ptr %7, align 4
  %53 = sext i32 %52 to i64
  %54 = getelementptr inbounds [32 x %struct.ResourceElem], ptr %51, i64 0, i64 %53
  %55 = getelementptr inbounds nuw %struct.ResourceElem, ptr %54, i32 0, i32 1
  %56 = load ptr, ptr %55, align 8
  %57 = load ptr, ptr %6, align 8
  %58 = icmp eq ptr %56, %57
  br i1 %58, label %59, label %78

59:                                               ; preds = %49
  %60 = load ptr, ptr %4, align 8
  %61 = getelementptr inbounds nuw %struct.ResourceOwnerData, ptr %60, i32 0, i32 9
  %62 = load i32, ptr %7, align 4
  %63 = sext i32 %62 to i64
  %64 = getelementptr inbounds [32 x %struct.ResourceElem], ptr %61, i64 0, i64 %63
  %65 = load ptr, ptr %4, align 8
  %66 = getelementptr inbounds nuw %struct.ResourceOwnerData, ptr %65, i32 0, i32 9
  %67 = load ptr, ptr %4, align 8
  %68 = getelementptr inbounds nuw %struct.ResourceOwnerData, ptr %67, i32 0, i32 7
  %69 = load i8, ptr %68, align 1
  %70 = zext i8 %69 to i32
  %71 = sub i32 %70, 1
  %72 = sext i32 %71 to i64
  %73 = getelementptr inbounds [32 x %struct.ResourceElem], ptr %66, i64 0, i64 %72
  call void @llvm.memcpy.p0.p0.i64(ptr align 8 %64, ptr align 8 %73, i64 16, i1 false)
  %74 = load ptr, ptr %4, align 8
  %75 = getelementptr inbounds nuw %struct.ResourceOwnerData, ptr %74, i32 0, i32 7
  %76 = load i8, ptr %75, align 1
  %77 = add i8 %76, -1
  store i8 %77, ptr %75, align 1
  store i32 1, ptr %8, align 4
  br label %82

78:                                               ; preds = %49, %39
  br label %79

79:                                               ; preds = %78
  %80 = load i32, ptr %7, align 4
  %81 = add i32 %80, -1
  store i32 %81, ptr %7, align 4
  br label %35, !llvm.loop !9

82:                                               ; preds = %59, %38
  call void @llvm.lifetime.end.p0(i64 4, ptr %7) #6
  %83 = load i32, ptr %8, align 4
  switch i32 %83, label %179 [
    i32 4, label %84
    i32 1, label %178
  ]

84:                                               ; preds = %82
  %85 = load ptr, ptr %4, align 8
  %86 = getelementptr inbounds nuw %struct.ResourceOwnerData, ptr %85, i32 0, i32 8
  %87 = load i32, ptr %86, align 4
  %88 = icmp ugt i32 %87, 0
  br i1 %88, label %89, label %161

89:                                               ; preds = %84
  call void @llvm.lifetime.start.p0(i64 4, ptr %9) #6
  %90 = load ptr, ptr %4, align 8
  %91 = getelementptr inbounds nuw %struct.ResourceOwnerData, ptr %90, i32 0, i32 11
  %92 = load i32, ptr %91, align 8
  %93 = sub i32 %92, 1
  store i32 %93, ptr %9, align 4
  call void @llvm.lifetime.start.p0(i64 4, ptr %10) #6
  %94 = load i64, ptr %5, align 8
  %95 = load ptr, ptr %6, align 8
  %96 = call i32 @hash_resource_elem(i64 noundef %94, ptr noundef %95)
  %97 = load i32, ptr %9, align 4
  %98 = and i32 %96, %97
  store i32 %98, ptr %10, align 4
  call void @llvm.lifetime.start.p0(i64 4, ptr %11) #6
  store i32 0, ptr %11, align 4
  br label %99

99:                                               ; preds = %152, %89
  %100 = load i32, ptr %11, align 4
  %101 = load ptr, ptr %4, align 8
  %102 = getelementptr inbounds nuw %struct.ResourceOwnerData, ptr %101, i32 0, i32 11
  %103 = load i32, ptr %102, align 8
  %104 = icmp ult i32 %100, %103
  br i1 %104, label %106, label %105

105:                                              ; preds = %99
  store i32 7, ptr %8, align 4
  br label %155

106:                                              ; preds = %99
  %107 = load ptr, ptr %4, align 8
  %108 = getelementptr inbounds nuw %struct.ResourceOwnerData, ptr %107, i32 0, i32 10
  %109 = load ptr, ptr %108, align 8
  %110 = load i32, ptr %10, align 4
  %111 = zext i32 %110 to i64
  %112 = getelementptr inbounds nuw %struct.ResourceElem, ptr %109, i64 %111
  %113 = getelementptr inbounds nuw %struct.ResourceElem, ptr %112, i32 0, i32 0
  %114 = load i64, ptr %113, align 8
  %115 = load i64, ptr %5, align 8
  %116 = icmp eq i64 %114, %115
  br i1 %116, label %117, label %147

117:                                              ; preds = %106
  %118 = load ptr, ptr %4, align 8
  %119 = getelementptr inbounds nuw %struct.ResourceOwnerData, ptr %118, i32 0, i32 10
  %120 = load ptr, ptr %119, align 8
  %121 = load i32, ptr %10, align 4
  %122 = zext i32 %121 to i64
  %123 = getelementptr inbounds nuw %struct.ResourceElem, ptr %120, i64 %122
  %124 = getelementptr inbounds nuw %struct.ResourceElem, ptr %123, i32 0, i32 1
  %125 = load ptr, ptr %124, align 8
  %126 = load ptr, ptr %6, align 8
  %127 = icmp eq ptr %125, %126
  br i1 %127, label %128, label %147

128:                                              ; preds = %117
  %129 = load ptr, ptr %4, align 8
  %130 = getelementptr inbounds nuw %struct.ResourceOwnerData, ptr %129, i32 0, i32 10
  %131 = load ptr, ptr %130, align 8
  %132 = load i32, ptr %10, align 4
  %133 = zext i32 %132 to i64
  %134 = getelementptr inbounds nuw %struct.ResourceElem, ptr %131, i64 %133
  %135 = getelementptr inbounds nuw %struct.ResourceElem, ptr %134, i32 0, i32 0
  store i64 0, ptr %135, align 8
  %136 = load ptr, ptr %4, align 8
  %137 = getelementptr inbounds nuw %struct.ResourceOwnerData, ptr %136, i32 0, i32 10
  %138 = load ptr, ptr %137, align 8
  %139 = load i32, ptr %10, align 4
  %140 = zext i32 %139 to i64
  %141 = getelementptr inbounds nuw %struct.ResourceElem, ptr %138, i64 %140
  %142 = getelementptr inbounds nuw %struct.ResourceElem, ptr %141, i32 0, i32 1
  store ptr null, ptr %142, align 8
  %143 = load ptr, ptr %4, align 8
  %144 = getelementptr inbounds nuw %struct.ResourceOwnerData, ptr %143, i32 0, i32 8
  %145 = load i32, ptr %144, align 4
  %146 = add i32 %145, -1
  store i32 %146, ptr %144, align 4
  store i32 1, ptr %8, align 4
  br label %155

147:                                              ; preds = %117, %106
  %148 = load i32, ptr %10, align 4
  %149 = add i32 %148, 1
  %150 = load i32, ptr %9, align 4
  %151 = and i32 %149, %150
  store i32 %151, ptr %10, align 4
  br label %152

152:                                              ; preds = %147
  %153 = load i32, ptr %11, align 4
  %154 = add i32 %153, 1
  store i32 %154, ptr %11, align 4
  br label %99, !llvm.loop !10

155:                                              ; preds = %128, %105
  call void @llvm.lifetime.end.p0(i64 4, ptr %11) #6
  %156 = load i32, ptr %8, align 4
  switch i32 %156, label %158 [
    i32 7, label %157
  ]

157:                                              ; preds = %155
  store i32 0, ptr %8, align 4
  br label %158

158:                                              ; preds = %157, %155
  call void @llvm.lifetime.end.p0(i64 4, ptr %10) #6
  call void @llvm.lifetime.end.p0(i64 4, ptr %9) #6
  %159 = load i32, ptr %8, align 4
  switch i32 %159, label %179 [
    i32 0, label %160
    i32 1, label %178
  ]

160:                                              ; preds = %158
  br label %161

161:                                              ; preds = %160, %84
  br label %162

162:                                              ; preds = %161
  br i1 true, label %163, label %165

163:                                              ; preds = %162
  %164 = call zeroext i1 @errstart_cold(i32 noundef 21, ptr noundef null) #7
  br i1 %164, label %167, label %177

165:                                              ; preds = %162
  %166 = call zeroext i1 @errstart(i32 noundef 21, ptr noundef null)
  br i1 %166, label %167, label %177

167:                                              ; preds = %165, %163
  %168 = load ptr, ptr %6, align 8
  %169 = getelementptr inbounds nuw %struct.ResourceOwnerDesc, ptr %168, i32 0, i32 0
  %170 = load ptr, ptr %169, align 8
  %171 = load i64, ptr %5, align 8
  %172 = call ptr @DatumGetPointer(i64 noundef %171)
  %173 = load ptr, ptr %4, align 8
  %174 = getelementptr inbounds nuw %struct.ResourceOwnerData, ptr %173, i32 0, i32 3
  %175 = load ptr, ptr %174, align 8
  %176 = call i32 (ptr, ...) @errmsg_internal(ptr noundef @.str.4, ptr noundef %170, ptr noundef %172, ptr noundef %175)
  call void @errfinish(ptr noundef @.str.1, i32 noundef 612, ptr noundef @__func__.ResourceOwnerForget)
  br label %177

177:                                              ; preds = %167, %165, %163
  unreachable

178:                                              ; preds = %82, %158
  ret void

179:                                              ; preds = %158, %82
  unreachable
}