; Function Attrs: nounwind uwtable
define dso_local void @ResourceOwnerForget(ptr noundef captures(none) %0, i64 noundef %1, ptr noundef %2) local_unnamed_addr #0 {
  %4 = getelementptr inbounds nuw i8, ptr %0, i64 32
  %5 = load i8, ptr %4, align 8, !range !4, !noundef !5
  %6 = trunc nuw i8 %5 to i1
  br i1 %6, label %7, label %11

7:                                                ; preds = %3
  %8 = tail call zeroext i1 @errstart_cold(i32 noundef 21, ptr noundef null) #11
  tail call void @llvm.assume(i1 %8)
  %9 = load ptr, ptr %2, align 8
  %10 = tail call i32 (ptr, ...) @errmsg_internal(ptr noundef nonnull @.str.3, ptr noundef %9) #10
  tail call void @errfinish(ptr noundef nonnull @.str.1, i32 noundef 562, ptr noundef nonnull @__func__.ResourceOwnerForget) #10
  unreachable

11:                                               ; preds = %3
  %12 = getelementptr inbounds nuw i8, ptr %0, i64 35
  %13 = load i8, ptr %12, align 1
  %.not65 = icmp eq i8 %13, 0
  br i1 %.not65, label %._crit_edge, label %.lr.ph

.lr.ph:                                           ; preds = %11
  %14 = getelementptr inbounds nuw i8, ptr %0, i64 40
  %15 = zext i8 %13 to i64
  br label %16

16:                                               ; preds = %.lr.ph, %24
  %indvars.iv = phi i64 [ %15, %.lr.ph ], [ %indvars.iv.next, %24 ]
  %indvars.iv.next = add nsw i64 %indvars.iv, -1
  %17 = getelementptr inbounds nuw [32 x %struct.ResourceElem], ptr %14, i64 0, i64 %indvars.iv.next
  %18 = load i64, ptr %17, align 8
  %19 = icmp eq i64 %18, %1
  br i1 %19, label %20, label %24

20:                                               ; preds = %16
  %21 = getelementptr inbounds nuw i8, ptr %17, i64 8
  %22 = load ptr, ptr %21, align 8
  %23 = icmp eq ptr %22, %2
  br i1 %23, label %26, label %24

24:                                               ; preds = %16, %20
  %25 = icmp samesign ugt i64 %indvars.iv, 1
  br i1 %25, label %16, label %._crit_edge, !llvm.loop !9

26:                                               ; preds = %20
  %27 = add nsw i64 %15, -1
  %28 = getelementptr inbounds [32 x %struct.ResourceElem], ptr %14, i64 0, i64 %27
  tail call void @llvm.memcpy.p0.p0.i64(ptr noundef nonnull align 8 dereferenceable(16) %17, ptr noundef nonnull align 8 dereferenceable(16) %28, i64 16, i1 false)
  %29 = add i8 %13, -1
  store i8 %29, ptr %12, align 1
  br label %75

._crit_edge:                                      ; preds = %24, %11
  %30 = getelementptr inbounds nuw i8, ptr %0, i64 36
  %31 = load i32, ptr %30, align 4
  %.not = icmp eq i32 %31, 0
  br i1 %.not, label %.thread51, label %32

32:                                               ; preds = %._crit_edge
  %33 = getelementptr inbounds nuw i8, ptr %0, i64 560
  %34 = load i32, ptr %33, align 8
  %35 = add i32 %34, -1
  %.not4560.not = icmp eq i32 %34, 0
  br i1 %.not4560.not, label %.thread51, label %.lr.ph64

.lr.ph64:                                         ; preds = %32
  %36 = ptrtoint ptr %2 to i64
  %37 = add i64 %36, 367372515
  %38 = lshr i64 %1, 33
  %39 = xor i64 %38, %1
  %40 = mul i64 %39, -49064778989728563
  %41 = lshr i64 %40, 33
  %42 = xor i64 %41, %40
  %43 = mul i64 %42, -4265267296055464877
  %44 = lshr i64 %43, 33
  %45 = xor i64 %44, %43
  %46 = lshr i64 %45, 7
  %47 = add i64 %37, %46
  %48 = xor i64 %47, %45
  %49 = trunc i64 %48 to i32
  %.04259 = and i32 %35, %49
  %50 = getelementptr inbounds nuw i8, ptr %0, i64 552
  %51 = load ptr, ptr %50, align 8
  br label %52

52:                                               ; preds = %.lr.ph64, %61
  %.04262 = phi i32 [ %.04259, %.lr.ph64 ], [ %.042, %61 ]
  %.061 = phi i32 [ 0, %.lr.ph64 ], [ %63, %61 ]
  %53 = zext i32 %.04262 to i64
  %54 = getelementptr inbounds nuw %struct.ResourceElem, ptr %51, i64 %53
  %55 = load i64, ptr %54, align 8
  %56 = icmp eq i64 %55, %1
  br i1 %56, label %57, label %61

57:                                               ; preds = %52
  %58 = getelementptr inbounds nuw i8, ptr %54, i64 8
  %59 = load ptr, ptr %58, align 8
  %60 = icmp eq ptr %59, %2
  br i1 %60, label %64, label %61

61:                                               ; preds = %57, %52
  %62 = add i32 %.04262, 1
  %63 = add nuw i32 %.061, 1
  %.042 = and i32 %62, %35
  %exitcond.not = icmp eq i32 %63, %34
  br i1 %exitcond.not, label %.thread51, label %52, !llvm.loop !10

64:                                               ; preds = %57
  store i64 0, ptr %54, align 8
  %65 = load ptr, ptr %50, align 8
  %66 = getelementptr inbounds nuw %struct.ResourceElem, ptr %65, i64 %53, i32 1
  store ptr null, ptr %66, align 8
  %67 = load i32, ptr %30, align 4
  %68 = add i32 %67, -1
  store i32 %68, ptr %30, align 4
  br label %75

.thread51:                                        ; preds = %61, %32, %._crit_edge
  %69 = tail call zeroext i1 @errstart_cold(i32 noundef 21, ptr noundef null) #11
  tail call void @llvm.assume(i1 %69)
  %70 = load ptr, ptr %2, align 8
  %71 = inttoptr i64 %1 to ptr
  %72 = getelementptr inbounds nuw i8, ptr %0, i64 24
  %73 = load ptr, ptr %72, align 8
  %74 = tail call i32 (ptr, ...) @errmsg_internal(ptr noundef nonnull @.str.4, ptr noundef %70, ptr noundef %71, ptr noundef %73) #10
  tail call void @errfinish(ptr noundef nonnull @.str.1, i32 noundef 612, ptr noundef nonnull @__func__.ResourceOwnerForget) #10
  unreachable

75:                                               ; preds = %64, %26
  ret void
}